target datalayout = "e-m:e-p270:32:32-p271:32:32-p272:64:64-i64:64-i128:128-f80:128-n8:16:32:64-S128"
target triple = "x86_64-pc-linux-gnu"

%"class.std::__cxx11::basic_string" = type { %"struct.std::__cxx11::basic_string<char>::_Alloc_hider", i64, %union.anon }
%"struct.std::__cxx11::basic_string<char>::_Alloc_hider" = type { ptr }
%union.anon = type { i64, [8 x i8] }
%"class.std::vector.3" = type { %"struct.std::_Vector_base.4" }
%"struct.std::_Vector_base.4" = type { %"struct.std::_Vector_base<int, std::allocator<int>>::_Vector_impl" }
%"struct.std::_Vector_base<int, std::allocator<int>>::_Vector_impl" = type { %"struct.std::_Vector_base<int, std::allocator<int>>::_Vector_impl_data" }
%"struct.std::_Vector_base<int, std::allocator<int>>::_Vector_impl_data" = type { ptr, ptr, ptr }
%"struct.(anonymous namespace)::CxxrtlWorker" = type { i8, %"class.std::__cxx11::basic_string", %"class.std::__cxx11::basic_string", %"class.std::__cxx11::basic_string", ptr, ptr, i8, i8, i8, i8, i8, i8, i8, i8, i8, i8, i8, i8, i8, i8, i8, %"class.std::__cxx11::basic_ostringstream", %"class.std::__cxx11::basic_string", i32, [4 x i8], %"class.Yosys::hashlib::dict", %"class.Yosys::hashlib::dict.13", %"class.Yosys::hashlib::pool", %"class.Yosys::hashlib::pool.25", %"class.Yosys::hashlib::dict.32", %"class.Yosys::hashlib::dict.39", %"class.Yosys::hashlib::dict.46", %"class.Yosys::hashlib::dict.46", %"class.Yosys::hashlib::dict.53", %"class.Yosys::hashlib::dict.53", %"class.Yosys::hashlib::dict.60", %"class.Yosys::hashlib::dict.67", %"class.Yosys::hashlib::dict.74" }
%"class.std::__cxx11::basic_ostringstream" = type { %"class.std::basic_ostream.base", %"class.std::__cxx11::basic_stringbuf", %"class.std::basic_ios" }
%"class.std::basic_ostream.base" = type { ptr }
%"class.std::__cxx11::basic_stringbuf" = type { %"class.std::basic_streambuf", i32, %"class.std::__cxx11::basic_string" }
%"class.std::basic_streambuf" = type { ptr, ptr, ptr, ptr, ptr, ptr, ptr, %"class.std::locale" }
%"class.std::locale" = type { ptr }
%"class.std::basic_ios" = type { %"class.std::ios_base", ptr, i8, i8, ptr, ptr, ptr, ptr }
%"class.std::ios_base" = type { ptr, i64, i64, i32, i32, i32, ptr, %"struct.std::ios_base::_Words", [8 x %"struct.std::ios_base::_Words"], i32, ptr, %"class.std::locale" }
%"struct.std::ios_base::_Words" = type { ptr, i64 }
%"class.Yosys::hashlib::dict" = type <{ %"class.std::vector.3", %"class.std::vector.8", [8 x i8] }>
%"class.std::vector.8" = type { %"struct.std::_Vector_base.9" }
%"struct.std::_Vector_base.9" = type { %"struct.std::_Vector_base<Yosys::hashlib::dict<const Yosys::RTLIL::Module *, Yosys::SigMap>::entry_t, std::allocator<Yosys::hashlib::dict<const Yosys::RTLIL::Module *, Yosys::SigMap>::entry_t>>::_Vector_impl" }
%"struct.std::_Vector_base<Yosys::hashlib::dict<const Yosys::RTLIL::Module *, Yosys::SigMap>::entry_t, std::allocator<Yosys::hashlib::dict<const Yosys::RTLIL::Module *, Yosys::SigMap>::entry_t>>::_Vector_impl" = type { %"struct.std::_Vector_base<Yosys::hashlib::dict<const Yosys::RTLIL::Module *, Yosys::SigMap>::entry_t, std::allocator<Yosys::hashlib::dict<const Yosys::RTLIL::Module *, Yosys::SigMap>::entry_t>>::_Vector_impl_data" }
%"struct.std::_Vector_base<Yosys::hashlib::dict<const Yosys::RTLIL::Module *, Yosys::SigMap>::entry_t, std::allocator<Yosys::hashlib::dict<const Yosys::RTLIL::Module *, Yosys::SigMap>::entry_t>>::_Vector_impl_data" = type { ptr, ptr, ptr }
%"class.Yosys::hashlib::dict.13" = type <{ %"class.std::vector.3", %"class.std::vector.14", [8 x i8] }>
%"class.std::vector.14" = type { %"struct.std::_Vector_base.15" }
%"struct.std::_Vector_base.15" = type { %"struct.std::_Vector_base<Yosys::hashlib::dict<const Yosys::RTLIL::Module *, std::vector<Yosys::Mem>>::entry_t, std::allocator<Yosys::hashlib::dict<const Yosys::RTLIL::Module *, std::vector<Yosys::Mem>>::entry_t>>::_Vector_impl" }
%"struct.std::_Vector_base<Yosys::hashlib::dict<const Yosys::RTLIL::Module *, std::vector<Yosys::Mem>>::entry_t, std::allocator<Yosys::hashlib::dict<const Yosys::RTLIL::Module *, std::vector<Yosys::Mem>>::entry_t>>::_Vector_impl" = type { %"struct.std::_Vector_base<Yosys::hashlib::dict<const Yosys::RTLIL::Module *, std::vector<Yosys::Mem>>::entry_t, std::allocator<Yosys::hashlib::dict<const Yosys::RTLIL::Module *, std::vector<Yosys::Mem>>::entry_t>>::_Vector_impl_data" }
%"struct.std::_Vector_base<Yosys::hashlib::dict<const Yosys::RTLIL::Module *, std::vector<Yosys::Mem>>::entry_t, std::allocator<Yosys::hashlib::dict<const Yosys::RTLIL::Module *, std::vector<Yosys::Mem>>::entry_t>>::_Vector_impl_data" = type { ptr, ptr, ptr }
%"class.Yosys::hashlib::pool" = type <{ %"class.std::vector.3", %"class.std::vector.20", [8 x i8] }>
%"class.std::vector.20" = type { %"struct.std::_Vector_base.21" }
%"struct.std::_Vector_base.21" = type { %"struct.std::_Vector_base<Yosys::hashlib::pool<std::pair<const Yosys::RTLIL::Module *, Yosys::RTLIL::IdString>>::entry_t, std::allocator<Yosys::hashlib::pool<std::pair<const Yosys::RTLIL::Module *, Yosys::RTLIL::IdString>>::entry_t>>::_Vector_impl" }
%"struct.std::_Vector_base<Yosys::hashlib::pool<std::pair<const Yosys::RTLIL::Module *, Yosys::RTLIL::IdString>>::entry_t, std::allocator<Yosys::hashlib::pool<std::pair<const Yosys::RTLIL::Module *, Yosys::RTLIL::IdString>>::entry_t>>::_Vector_impl" = type { %"struct.std::_Vector_base<Yosys::hashlib::pool<std::pair<const Yosys::RTLIL::Module *, Yosys::RTLIL::IdString>>::entry_t, std::allocator<Yosys::hashlib::pool<std::pair<const Yosys::RTLIL::Module *, Yosys::RTLIL::IdString>>::entry_t>>::_Vector_impl_data" }
%"struct.std::_Vector_base<Yosys::hashlib::pool<std::pair<const Yosys::RTLIL::Module *, Yosys::RTLIL::IdString>>::entry_t, std::allocator<Yosys::hashlib::pool<std::pair<const Yosys::RTLIL::Module *, Yosys::RTLIL::IdString>>::entry_t>>::_Vector_impl_data" = type { ptr, ptr, ptr }
%"class.Yosys::hashlib::pool.25" = type <{ %"class.std::vector.3", %"class.std::vector.26", [8 x i8] }>
%"class.std::vector.26" = type { %"struct.std::_Vector_base.27" }
%"struct.std::_Vector_base.27" = type { %"struct.std::_Vector_base<Yosys::hashlib::pool<const Yosys::RTLIL::Wire *>::entry_t, std::allocator<Yosys::hashlib::pool<const Yosys::RTLIL::Wire *>::entry_t>>::_Vector_impl" }
%"struct.std::_Vector_base<Yosys::hashlib::pool<const Yosys::RTLIL::Wire *>::entry_t, std::allocator<Yosys::hashlib::pool<const Yosys::RTLIL::Wire *>::entry_t>>::_Vector_impl" = type { %"struct.std::_Vector_base<Yosys::hashlib::pool<const Yosys::RTLIL::Wire *>::entry_t, std::allocator<Yosys::hashlib::pool<const Yosys::RTLIL::Wire *>::entry_t>>::_Vector_impl_data" }
%"struct.std::_Vector_base<Yosys::hashlib::pool<const Yosys::RTLIL::Wire *>::entry_t, std::allocator<Yosys::hashlib::pool<const Yosys::RTLIL::Wire *>::entry_t>>::_Vector_impl_data" = type { ptr, ptr, ptr }
%"class.Yosys::hashlib::dict.32" = type <{ %"class.std::vector.3", %"class.std::vector.33", [8 x i8] }>
%"class.std::vector.33" = type { %"struct.std::_Vector_base.34" }
%"struct.std::_Vector_base.34" = type { %"struct.std::_Vector_base<Yosys::hashlib::dict<const Yosys::RTLIL::Wire *, Yosys::RTLIL::Const>::entry_t, std::allocator<Yosys::hashlib::dict<const Yosys::RTLIL::Wire *, Yosys::RTLIL::Const>::entry_t>>::_Vector_impl" }
%"struct.std::_Vector_base<Yosys::hashlib::dict<const Yosys::RTLIL::Wire *, Yosys::RTLIL::Const>::entry_t, std::allocator<Yosys::hashlib::dict<const Yosys::RTLIL::Wire *, Yosys::RTLIL::Const>::entry_t>>::_Vector_impl" = type { %"struct.std::_Vector_base<Yosys::hashlib::dict<const Yosys::RTLIL::Wire *, Yosys::RTLIL::Const>::entry_t, std::allocator<Yosys::hashlib::dict<const Yosys::RTLIL::Wire *, Yosys::RTLIL::Const>::entry_t>>::_Vector_impl_data" }
%"struct.std::_Vector_base<Yosys::hashlib::dict<const Yosys::RTLIL::Wire *, Yosys::RTLIL::Const>::entry_t, std::allocator<Yosys::hashlib::dict<const Yosys::RTLIL::Wire *, Yosys::RTLIL::Const>::entry_t>>::_Vector_impl_data" = type { ptr, ptr, ptr }
%"class.Yosys::hashlib::dict.39" = type <{ %"class.std::vector.3", %"class.std::vector.40", [8 x i8] }>
%"class.std::vector.40" = type { %"struct.std::_Vector_base.41" }
%"struct.std::_Vector_base.41" = type { %"struct.std::_Vector_base<Yosys::hashlib::dict<Yosys::RTLIL::SigBit, Yosys::RTLIL::SyncType>::entry_t, std::allocator<Yosys::hashlib::dict<Yosys::RTLIL::SigBit, Yosys::RTLIL::SyncType>::entry_t>>::_Vector_impl" }
%"struct.std::_Vector_base<Yosys::hashlib::dict<Yosys::RTLIL::SigBit, Yosys::RTLIL::SyncType>::entry_t, std::allocator<Yosys::hashlib::dict<Yosys::RTLIL::SigBit, Yosys::RTLIL::SyncType>::entry_t>>::_Vector_impl" = type { %"struct.std::_Vector_base<Yosys::hashlib::dict<Yosys::RTLIL::SigBit, Yosys::RTLIL::SyncType>::entry_t, std::allocator<Yosys::hashlib::dict<Yosys::RTLIL::SigBit, Yosys::RTLIL::SyncType>::entry_t>>::_Vector_impl_data" }
%"struct.std::_Vector_base<Yosys::hashlib::dict<Yosys::RTLIL::SigBit, Yosys::RTLIL::SyncType>::entry_t, std::allocator<Yosys::hashlib::dict<Yosys::RTLIL::SigBit, Yosys::RTLIL::SyncType>::entry_t>>::_Vector_impl_data" = type { ptr, ptr, ptr }
%"class.Yosys::hashlib::dict.46" = type <{ %"class.std::vector.3", %"class.std::vector.47", [8 x i8] }>
%"class.std::vector.47" = type { %"struct.std::_Vector_base.48" }
%"struct.std::_Vector_base.48" = type { %"struct.std::_Vector_base<Yosys::hashlib::dict<const Yosys::RTLIL::Module *, std::vector<(anonymous namespace)::FlowGraph::Node>>::entry_t, std::allocator<Yosys::hashlib::dict<const Yosys::RTLIL::Module *, std::vector<(anonymous namespace)::FlowGraph::Node>>::entry_t>>::_Vector_impl" }
%"struct.std::_Vector_base<Yosys::hashlib::dict<const Yosys::RTLIL::Module *, std::vector<(anonymous namespace)::FlowGraph::Node>>::entry_t, std::allocator<Yosys::hashlib::dict<const Yosys::RTLIL::Module *, std::vector<(anonymous namespace)::FlowGraph::Node>>::entry_t>>::_Vector_impl" = type { %"struct.std::_Vector_base<Yosys::hashlib::dict<const Yosys::RTLIL::Module *, std::vector<(anonymous namespace)::FlowGraph::Node>>::entry_t, std::allocator<Yosys::hashlib::dict<const Yosys::RTLIL::Module *, std::vector<(anonymous namespace)::FlowGraph::Node>>::entry_t>>::_Vector_impl_data" }
%"struct.std::_Vector_base<Yosys::hashlib::dict<const Yosys::RTLIL::Module *, std::vector<(anonymous namespace)::FlowGraph::Node>>::entry_t, std::allocator<Yosys::hashlib::dict<const Yosys::RTLIL::Module *, std::vector<(anonymous namespace)::FlowGraph::Node>>::entry_t>>::_Vector_impl_data" = type { ptr, ptr, ptr }
%"class.Yosys::hashlib::dict.53" = type <{ %"class.std::vector.3", %"class.std::vector.54", [8 x i8] }>
%"class.std::vector.54" = type { %"struct.std::_Vector_base.55" }
%"struct.std::_Vector_base.55" = type { %"struct.std::_Vector_base<Yosys::hashlib::dict<const Yosys::RTLIL::Wire *, (anonymous namespace)::WireType>::entry_t, std::allocator<Yosys::hashlib::dict<const Yosys::RTLIL::Wire *, (anonymous namespace)::WireType>::entry_t>>::_Vector_impl" }
%"struct.std::_Vector_base<Yosys::hashlib::dict<const Yosys::RTLIL::Wire *, (anonymous namespace)::WireType>::entry_t, std::allocator<Yosys::hashlib::dict<const Yosys::RTLIL::Wire *, (anonymous namespace)::WireType>::entry_t>>::_Vector_impl" = type { %"struct.std::_Vector_base<Yosys::hashlib::dict<const Yosys::RTLIL::Wire *, (anonymous namespace)::WireType>::entry_t, std::allocator<Yosys::hashlib::dict<const Yosys::RTLIL::Wire *, (anonymous namespace)::WireType>::entry_t>>::_Vector_impl_data" }
%"struct.std::_Vector_base<Yosys::hashlib::dict<const Yosys::RTLIL::Wire *, (anonymous namespace)::WireType>::entry_t, std::allocator<Yosys::hashlib::dict<const Yosys::RTLIL::Wire *, (anonymous namespace)::WireType>::entry_t>>::_Vector_impl_data" = type { ptr, ptr, ptr }
%"class.Yosys::hashlib::dict.60" = type <{ %"class.std::vector.3", %"class.std::vector.61", [8 x i8] }>
%"class.std::vector.61" = type { %"struct.std::_Vector_base.62" }
%"struct.std::_Vector_base.62" = type { %"struct.std::_Vector_base<Yosys::hashlib::dict<Yosys::RTLIL::SigBit, bool>::entry_t, std::allocator<Yosys::hashlib::dict<Yosys::RTLIL::SigBit, bool>::entry_t>>::_Vector_impl" }
%"struct.std::_Vector_base<Yosys::hashlib::dict<Yosys::RTLIL::SigBit, bool>::entry_t, std::allocator<Yosys::hashlib::dict<Yosys::RTLIL::SigBit, bool>::entry_t>>::_Vector_impl" = type { %"struct.std::_Vector_base<Yosys::hashlib::dict<Yosys::RTLIL::SigBit, bool>::entry_t, std::allocator<Yosys::hashlib::dict<Yosys::RTLIL::SigBit, bool>::entry_t>>::_Vector_impl_data" }
%"struct.std::_Vector_base<Yosys::hashlib::dict<Yosys::RTLIL::SigBit, bool>::entry_t, std::allocator<Yosys::hashlib::dict<Yosys::RTLIL::SigBit, bool>::entry_t>>::_Vector_impl_data" = type { ptr, ptr, ptr }
%"class.Yosys::hashlib::dict.67" = type <{ %"class.std::vector.3", %"class.std::vector.68", [8 x i8] }>
%"class.std::vector.68" = type { %"struct.std::_Vector_base.69" }
%"struct.std::_Vector_base.69" = type { %"struct.std::_Vector_base<Yosys::hashlib::dict<const Yosys::RTLIL::Module *, Yosys::hashlib::pool<std::__cxx11::basic_string<char>>>::entry_t, std::allocator<Yosys::hashlib::dict<const Yosys::RTLIL::Module *, Yosys::hashlib::pool<std::__cxx11::basic_string<char>>>::entry_t>>::_Vector_impl" }
%"struct.std::_Vector_base<Yosys::hashlib::dict<const Yosys::RTLIL::Module *, Yosys::hashlib::pool<std::__cxx11::basic_string<char>>>::entry_t, std::allocator<Yosys::hashlib::dict<const Yosys::RTLIL::Module *, Yosys::hashlib::pool<std::__cxx11::basic_string<char>>>::entry_t>>::_Vector_impl" = type { %"struct.std::_Vector_base<Yosys::hashlib::dict<const Yosys::RTLIL::Module *, Yosys::hashlib::pool<std::__cxx11::basic_string<char>>>::entry_t, std::allocator<Yosys::hashlib::dict<const Yosys::RTLIL::Module *, Yosys::hashlib::pool<std::__cxx11::basic_string<char>>>::entry_t>>::_Vector_impl_data" }
%"struct.std::_Vector_base<Yosys::hashlib::dict<const Yosys::RTLIL::Module *, Yosys::hashlib::pool<std::__cxx11::basic_string<char>>>::entry_t, std::allocator<Yosys::hashlib::dict<const Yosys::RTLIL::Module *, Yosys::hashlib::pool<std::__cxx11::basic_string<char>>>::entry_t>>::_Vector_impl_data" = type { ptr, ptr, ptr }
%"class.Yosys::hashlib::dict.74" = type <{ %"class.std::vector.3", %"class.std::vector.75", [8 x i8] }>
%"class.std::vector.75" = type { %"struct.std::_Vector_base.76" }
%"struct.std::_Vector_base.76" = type { %"struct.std::_Vector_base<Yosys::hashlib::dict<const Yosys::RTLIL::Module *, bool>::entry_t, std::allocator<Yosys::hashlib::dict<const Yosys::RTLIL::Module *, bool>::entry_t>>::_Vector_impl" }
%"struct.std::_Vector_base<Yosys::hashlib::dict<const Yosys::RTLIL::Module *, bool>::entry_t, std::allocator<Yosys::hashlib::dict<const Yosys::RTLIL::Module *, bool>::entry_t>>::_Vector_impl" = type { %"struct.std::_Vector_base<Yosys::hashlib::dict<const Yosys::RTLIL::Module *, bool>::entry_t, std::allocator<Yosys::hashlib::dict<const Yosys::RTLIL::Module *, bool>::entry_t>>::_Vector_impl_data" }
%"struct.std::_Vector_base<Yosys::hashlib::dict<const Yosys::RTLIL::Module *, bool>::entry_t, std::allocator<Yosys::hashlib::dict<const Yosys::RTLIL::Module *, bool>::entry_t>>::_Vector_impl_data" = type { ptr, ptr, ptr }

@.str.247 = private unnamed_addr constant [2 x i8] c">\00", align 1
@.str.381 = private unnamed_addr constant [7 x i8] c"value<\00", align 1

; Function Attrs: inlinehint mustprogress nounwind uwtable
define linkonce_odr noundef i32 @_ZStorSt12_Ios_IostateS_(i32 noundef %0, i32 noundef %1) #7 comdat {
  %3 = alloca i32, align 4
  %4 = alloca i32, align 4
  store i32 %0, ptr %3, align 4, !tbaa !784
  store i32 %1, ptr %4, align 4, !tbaa !784
  %5 = load i32, ptr %3, align 4, !tbaa !784
  %6 = load i32, ptr %4, align 4, !tbaa !784
  %7 = or i32 %5, %6
  ret i32 %7
}

; Function Attrs: mustprogress nounwind uwtable
define available_externally noundef i32 @_ZNKSt9basic_iosIcSt11char_traitsIcEE7rdstateEv(ptr noundef nonnull align 8 dereferenceable(264) %0) #6 align 2 {
  %2 = alloca ptr, align 8
  store ptr %0, ptr %2, align 8, !tbaa !168
  %3 = load ptr, ptr %2, align 8
  %4 = getelementptr inbounds nuw %"class.std::ios_base", ptr %3, i32 0, i32 5
  %5 = load i32, ptr %4, align 8, !tbaa !785
  ret i32 %5
}

; Function Attrs: mustprogress nounwind uwtable
define linkonce_odr noundef i64 @_ZNSt11char_traitsIcE6lengthEPKc(ptr noundef %0) #6 comdat align 2 {
  %2 = alloca ptr, align 8
  store ptr %0, ptr %2, align 8, !tbaa !17
  %3 = load ptr, ptr %2, align 8, !tbaa !17
  %4 = call i64 @strlen(ptr noundef %3) #3
  ret i64 %4
}

; Function Attrs: mustprogress uwtable
define available_externally void @_ZNSt9basic_iosIcSt11char_traitsIcEE8setstateESt12_Ios_Iostate(ptr noundef nonnull align 8 dereferenceable(264) %0, i32 noundef %1) #4 align 2 {
  %3 = alloca ptr, align 8
  %4 = alloca i32, align 4
  store ptr %0, ptr %3, align 8, !tbaa !168
  store i32 %1, ptr %4, align 4, !tbaa !784
  %5 = load ptr, ptr %3, align 8
  %6 = call noundef i32 @_ZNKSt9basic_iosIcSt11char_traitsIcEE7rdstateEv(ptr noundef nonnull align 8 dereferenceable(264) %5)
  %7 = load i32, ptr %4, align 4, !tbaa !784
  %8 = call noundef i32 @_ZStorSt12_Ios_IostateS_(i32 noundef %6, i32 noundef %7)
  call void @_ZNSt9basic_iosIcSt11char_traitsIcEE5clearESt12_Ios_Iostate(ptr noundef nonnull align 8 dereferenceable(264) %5, i32 noundef %8)
  ret void
}

; Function Attrs: inlinehint mustprogress uwtable
define available_externally noundef nonnull align 8 dereferenceable(8) ptr @_ZStlsISt11char_traitsIcEERSt13basic_ostreamIcT_ES5_PKc(ptr noundef nonnull align 8 dereferenceable(8) %0, ptr noundef %1) #9 {
  %3 = alloca ptr, align 8
  %4 = alloca ptr, align 8
  store ptr %0, ptr %3, align 8, !tbaa !144
  store ptr %1, ptr %4, align 8, !tbaa !17
  %5 = load ptr, ptr %4, align 8, !tbaa !17
  %6 = icmp ne ptr %5, null
  br i1 %6, label %13, label %7

7:                                                ; preds = %2
  %8 = load ptr, ptr %3, align 8, !tbaa !144
  %9 = load ptr, ptr %8, align 8, !tbaa !11
  %10 = getelementptr i8, ptr %9, i64 -24
  %11 = load i64, ptr %10, align 8
  %12 = getelementptr inbounds i8, ptr %8, i64 %11
  call void @_ZNSt9basic_iosIcSt11char_traitsIcEE8setstateESt12_Ios_Iostate(ptr noundef nonnull align 8 dereferenceable(264) %12, i32 noundef 1)
  br label %19

13:                                               ; preds = %2
  %14 = load ptr, ptr %3, align 8, !tbaa !144
  %15 = load ptr, ptr %4, align 8, !tbaa !17
  %16 = load ptr, ptr %4, align 8, !tbaa !17
  %17 = call noundef i64 @_ZNSt11char_traitsIcE6lengthEPKc(ptr noundef %16)
  %18 = call noundef nonnull align 8 dereferenceable(8) ptr @_ZSt16__ostream_insertIcSt11char_traitsIcEERSt13basic_ostreamIT_T0_ES6_PKS3_l(ptr noundef nonnull align 8 dereferenceable(8) %14, ptr noundef %15, i64 noundef %17)
  br label %19

19:                                               ; preds = %13, %7
  %20 = load ptr, ptr %3, align 8, !tbaa !144
  ret ptr %20
}

; Function Attrs: mustprogress uwtable
define internal void @_ZN12_GLOBAL__N_112CxxrtlWorker10dump_constERKN5Yosys5RTLIL5ConstEiib(ptr noundef nonnull align 8 dereferenceable(1280) %0, ptr noundef nonnull align 8 dereferenceable(40) %1, i32 noundef %2, i32 noundef %3, i1 noundef zeroext %4) #4 align 2 {
  %6 = alloca ptr, align 8
  %7 = alloca ptr, align 8
  %8 = alloca i32, align 4
  %9 = alloca i32, align 4
  %10 = alloca i8, align 1
  store ptr %0, ptr %6, align 8, !tbaa !157
  store ptr %1, ptr %7, align 8, !tbaa !848
  store i32 %2, ptr %8, align 4, !tbaa !32
  store i32 %3, ptr %9, align 4, !tbaa !32
  %11 = zext i1 %4 to i8
  store i8 %11, ptr %10, align 1, !tbaa !30
  %12 = load ptr, ptr %6, align 8
  %13 = getelementptr inbounds nuw %"struct.(anonymous namespace)::CxxrtlWorker", ptr %12, i32 0, i32 21
  %14 = call noundef nonnull align 8 dereferenceable(8) ptr @_ZStlsISt11char_traitsIcEERSt13basic_ostreamIcT_ES5_PKc(ptr noundef nonnull align 8 dereferenceable(8) %13, ptr noundef @.str.381)
  %15 = load i32, ptr %8, align 4, !tbaa !32
  %16 = call noundef nonnull align 8 dereferenceable(8) ptr @_ZNSolsEi(ptr noundef nonnull align 8 dereferenceable(8) %14, i32 noundef %15)
  %17 = call noundef nonnull align 8 dereferenceable(8) ptr @_ZStlsISt11char_traitsIcEERSt13basic_ostreamIcT_ES5_PKc(ptr noundef nonnull align 8 dereferenceable(8) %16, ptr noundef @.str.247)
  %18 = load ptr, ptr %7, align 8, !tbaa !848
  %19 = load i32, ptr %8, align 4, !tbaa !32
  %20 = load i32, ptr %9, align 4, !tbaa !32
  %21 = load i8, ptr %10, align 1, !tbaa !30, !range !126, !noundef !127
  %22 = trunc i8 %21 to i1
  call void @_ZN12_GLOBAL__N_112CxxrtlWorker15dump_const_initERKN5Yosys5RTLIL5ConstEiib(ptr noundef nonnull align 8 dereferenceable(1280) %12, ptr noundef nonnull align 8 dereferenceable(40) %18, i32 noundef %19, i32 noundef %20, i1 noundef zeroext %22)
  ret void
}

; Function Attrs: mustprogress uwtable
define internal void @_ZN12_GLOBAL__N_112CxxrtlWorker10dump_constERKN5Yosys5RTLIL5ConstE(ptr noundef nonnull align 8 dereferenceable(1280) %0, ptr noundef nonnull align 8 dereferenceable(40) %1) #4 align 2 {
  %3 = alloca ptr, align 8
  %4 = alloca ptr, align 8
  store ptr %0, ptr %3, align 8, !tbaa !157
  store ptr %1, ptr %4, align 8, !tbaa !848
  %5 = load ptr, ptr %3, align 8
  %6 = load ptr, ptr %4, align 8, !tbaa !848
  %7 = load ptr, ptr %4, align 8, !tbaa !848
  %8 = call noundef i32 @_ZNK5Yosys5RTLIL5Const4sizeEv(ptr noundef nonnull align 8 dereferenceable(40) %7)
  call void @_ZN12_GLOBAL__N_112CxxrtlWorker10dump_constERKN5Yosys5RTLIL5ConstEiib(ptr noundef nonnull align 8 dereferenceable(1280) %5, ptr noundef nonnull align 8 dereferenceable(40) %6, i32 noundef %8, i32 noundef 0, i1 noundef zeroext false)
  ret void
}