; Function Attrs: mustprogress uwtable
define internal fastcc void @_ZN12_GLOBAL__N_112CxxrtlWorker10dump_constERKN5Yosys5RTLIL5ConstE(ptr noundef nonnull align 8 dereferenceable(1280) %0, ptr noundef nonnull align 8 dereferenceable(40) %1) unnamed_addr #5 align 2 {
  %3 = tail call noundef i32 @_ZNK5Yosys5RTLIL5Const4sizeEv(ptr noundef nonnull align 8 dereferenceable(40) %1)
  %4 = getelementptr inbounds nuw i8, ptr %0, i64 136
  %5 = tail call noundef nonnull align 8 dereferenceable(8) ptr @_ZSt16__ostream_insertIcSt11char_traitsIcEERSt13basic_ostreamIT_T0_ES6_PKS3_l(ptr noundef nonnull align 8 dereferenceable(8) %4, ptr noundef nonnull @.str.381, i64 noundef 6)
  %6 = tail call noundef nonnull align 8 dereferenceable(8) ptr @_ZNSolsEi(ptr noundef nonnull align 8 dereferenceable(8) %4, i32 noundef %3)
  %7 = tail call noundef nonnull align 8 dereferenceable(8) ptr @_ZSt16__ostream_insertIcSt11char_traitsIcEERSt13basic_ostreamIT_T0_ES6_PKS3_l(ptr noundef nonnull align 8 dereferenceable(8) %6, ptr noundef nonnull @.str.247, i64 noundef 1)
  tail call fastcc void @_ZN12_GLOBAL__N_112CxxrtlWorker15dump_const_initERKN5Yosys5RTLIL5ConstEiib(ptr noundef nonnull align 8 dereferenceable(1280) %0, ptr noundef nonnull align 8 dereferenceable(40) %1, i32 noundef %3, i32 noundef 0, i1 noundef zeroext false)
  ret void
}